; Function Attrs: mustprogress uwtable
define dso_local void @_ZN24btPairCachingGhostObjectC2Ev(ptr noundef nonnull align 8 dereferenceable(416) %this) unnamed_addr #0 align 2 personality ptr @__gxx_personality_v0 {
entry:
  tail call void @_ZN17btCollisionObjectC2Ev(ptr noundef nonnull align 8 dereferenceable(372) %this)
  %m_ownsMemory.i.i.i = getelementptr inbounds i8, ptr %this, i64 400
  store i8 1, ptr %m_ownsMemory.i.i.i, align 8
  %m_data.i.i.i = getelementptr inbounds i8, ptr %this, i64 392
  store ptr null, ptr %m_data.i.i.i, align 8
  %m_size.i.i.i = getelementptr inbounds i8, ptr %this, i64 380
  store i32 0, ptr %m_size.i.i.i, align 4
  %m_capacity.i.i.i = getelementptr inbounds i8, ptr %this, i64 384
  store i32 0, ptr %m_capacity.i.i.i, align 8
  %m_internalType.i = getelementptr inbounds i8, ptr %this, i64 272
  store i32 4, ptr %m_internalType.i, align 8
  store ptr getelementptr inbounds ({ [11 x ptr] }, ptr @_ZTV24btPairCachingGhostObject, i64 0, i32 0, i64 2), ptr %this, align 8
  %call = invoke noundef ptr @_Z22btAlignedAllocInternalmi(i64 noundef 120, i32 noundef 16)
          to label %invoke.cont unwind label %lpad

invoke.cont:                                      ; preds = %entry
  invoke void @_ZN28btHashedOverlappingPairCacheC1Ev(ptr noundef nonnull align 8 dereferenceable(120) %call)
          to label %invoke.cont5 unwind label %lpad4

invoke.cont5:                                     ; preds = %invoke.cont
  %m_hashPairCache = getelementptr inbounds i8, ptr %this, i64 408
  store ptr %call, ptr %m_hashPairCache, align 8
  ret void

lpad:                                             ; preds = %entry
  %0 = landingpad { ptr, i32 }
          cleanup
  br label %ehcleanup

lpad4:                                            ; preds = %invoke.cont
  %1 = landingpad { ptr, i32 }
          cleanup
  br label %ehcleanup

ehcleanup:                                        ; preds = %lpad4, %lpad
  %.pn = phi { ptr, i32 } [ %1, %lpad4 ], [ %0, %lpad ]
  tail call void @_ZN13btGhostObjectD2Ev(ptr noundef nonnull align 8 dereferenceable(408) %this) #15
  resume { ptr, i32 } %.pn
}